target datalayout = "e-m:e-p270:32:32-p271:32:32-p272:64:64-i64:64-i128:128-f80:128-n8:16:32:64-S128"
target triple = "x86_64-pc-linux-gnu"

%class.MemRegion = type { ptr, i64 }
%class.CollectedHeap = type { ptr, ptr, i64, i64, %class.SoftRefPolicy, %class.MemRegion, i8, i64, i32, i32, i32, i32, ptr, ptr }
%class.SoftRefPolicy = type { i8, i8 }

@g_assert_poison = external global ptr, align 8
@.str.29 = private unnamed_addr constant [44 x i8] c"src/hotspot/share/gc/g1/g1CollectedHeap.cpp\00", align 1
@.str.80 = private unnamed_addr constant [38 x i8] c"guarantee(!is_stw_gc_active()) failed\00", align 1
@.str.81 = private unnamed_addr constant [28 x i8] c"collection is not reentrant\00", align 1

; Function Attrs: mustprogress nounwind uwtable
define linkonce_odr hidden noundef zeroext i1 @_ZNK13CollectedHeap16is_stw_gc_activeEv(ptr noundef nonnull align 8 dereferenceable(104) %0) #1 comdat align 2 {
  %2 = alloca ptr, align 8
  store ptr %0, ptr %2, align 8
  %3 = load ptr, ptr %2, align 8
  %4 = getelementptr inbounds %class.CollectedHeap, ptr %3, i32 0, i32 6
  %5 = load i8, ptr %4, align 8
  %6 = trunc i8 %5 to i1
  ret i1 %6
}

; Function Attrs: mustprogress nounwind uwtable
define hidden noundef zeroext i1 @_ZN15G1CollectedHeap32do_collection_pause_at_safepointEv(ptr noundef nonnull align 8 dereferenceable(1488) %0) #1 align 2 {
  %2 = alloca ptr, align 8
  store ptr %0, ptr %2, align 8
  %3 = load ptr, ptr %2, align 8
  br label %4

4:                                                ; preds = %1
  br label %5

5:                                                ; preds = %4
  br label %6

6:                                                ; preds = %5
  %7 = call noundef zeroext i1 @_ZNK13CollectedHeap16is_stw_gc_activeEv(ptr noundef nonnull align 8 dereferenceable(104) %3)
  br i1 %7, label %8, label %10

8:                                                ; preds = %6
  %9 = load ptr, ptr @g_assert_poison, align 8
  store i8 88, ptr %9, align 1
  call void (ptr, i32, ptr, ptr, ...) @_Z15report_vm_errorPKciS0_S0_z(ptr noundef @.str.29, i32 noundef 2400, ptr noundef @.str.80, ptr noundef @.str.81) #11
  unreachable

10:                                               ; preds = %6
  br label %11

11:                                               ; preds = %10
  call void @_ZN15G1CollectedHeap39do_collection_pause_at_safepoint_helperEv(ptr noundef nonnull align 8 dereferenceable(1488) %3)
  ret i1 true
}