; Function Attrs: mustprogress nounwind uwtable
define hidden noundef zeroext i1 @_ZN15G1CollectedHeap32do_collection_pause_at_safepointEv(ptr noundef nonnull align 8 dereferenceable(1488) %0) local_unnamed_addr #0 align 2 {
  %2 = getelementptr inbounds i8, ptr %0, i64 56
  %3 = load i8, ptr %2, align 8
  %4 = trunc i8 %3 to i1
  br i1 %4, label %5, label %7

5:                                                ; preds = %1
  %6 = load ptr, ptr @g_assert_poison, align 8
  store i8 88, ptr %6, align 1
  tail call void (ptr, i32, ptr, ptr, ...) @_Z15report_vm_errorPKciS0_S0_z(ptr noundef nonnull @.str.29, i32 noundef 2400, ptr noundef nonnull @.str.80, ptr noundef nonnull @.str.81) #24
  unreachable

7:                                                ; preds = %1
  tail call void @_ZN15G1CollectedHeap39do_collection_pause_at_safepoint_helperEv(ptr noundef nonnull align 8 dereferenceable(1488) %0)
  ret i1 true
}